((ifloater_client
State
p0
(dp1
S'play_status'
p2
(lp3
I24
aI22
aI18
aI25
aI40
aI47
asS'portstr'
p4
S'18321'
p5
sS'deal'
p6
(isbridge
Deal
p7
(dp8
S'opening_lead'
p9
I00
sS'dummy'
p10
I2
sS'played_hands'
p11
(lp12
(lp13
a(lp14
a(lp15
a(lp16
asS'dealer'
p17
I2
sS'contract'
p18
(isbridge
Bid
p19
(dp20
S'denom'
p21
I3
sS'level'
p22
I1
sbsS'redoubler'
p23
NsS'tricks_taken'
p24
(lp25
I0
aI0
asS'trick'
p26
(isbridge
Trick
p27
(dp28
S'player'
p29
I1
sS'trump'
p30
I3
sS'lead'
p31
NsS'cards'
p32
(lp33
NaNaNaNasS'winner'
p34
NsS'leader'
p35
I1
sbsS'player'
p36
I1
sS'declarer'
p37
I0
sS'hands'
p38
(lp39
(lp40
(isbridge
Card
p41
(dp42
S'rank'
p43
I3
sS'suit'
p44
I0
sba(isbridge
Card
p45
(dp46
g43
I14
sg44
I1
sba(isbridge
Card
p47
(dp48
g43
I10
sg44
I1
sba(isbridge
Card
p49
(dp50
g43
I9
sg44
I1
sba(isbridge
Card
p51
(dp52
g43
I2
sg44
I1
sba(isbridge
Card
p53
(dp54
g43
I9
sg44
I2
sba(isbridge
Card
p55
(dp56
g43
I5
sg44
I2
sba(isbridge
Card
p57
(dp58
g43
I13
sg44
I3
sba(isbridge
Card
p59
(dp60
g43
I12
sg44
I3
sba(isbridge
Card
p61
(dp62
g43
I11
sg44
I3
sba(isbridge
Card
p63
(dp64
g43
I7
sg44
I3
sba(isbridge
Card
p65
(dp66
g43
I6
sg44
I3
sba(isbridge
Card
p67
(dp68
g43
I3
sg44
I3
sbaa(lp69
(isbridge
Card
p70
(dp71
g43
I11
sg44
I0
sba(isbridge
Card
p72
(dp73
g43
I10
sg44
I0
sba(isbridge
Card
p74
(dp75
g43
I7
sg44
I0
sba(isbridge
Card
p76
(dp77
g43
I5
sg44
I0
sba(isbridge
Card
p78
(dp79
g43
I2
sg44
I0
sba(isbridge
Card
p80
(dp81
g43
I13
sg44
I1
sba(isbridge
Card
p82
(dp83
g43
I8
sg44
I1
sba(isbridge
Card
p84
(dp85
g43
I11
sg44
I2
sba(isbridge
Card
p86
(dp87
g43
I8
sg44
I2
sba(isbridge
Card
p88
(dp89
g43
I6
sg44
I2
sba(isbridge
Card
p90
(dp91
g43
I4
sg44
I2
sba(isbridge
Card
p92
(dp93
g43
I2
sg44
I2
sba(isbridge
Card
p94
(dp95
g43
I10
sg44
I3
sbaa(lp96
(isbridge
Card
p97
(dp98
g43
I14
sg44
I0
sba(isbridge
Card
p99
(dp100
g43
I13
sg44
I0
sba(isbridge
Card
p101
(dp102
g43
I9
sg44
I0
sba(isbridge
Card
p103
(dp104
g43
I6
sg44
I0
sba(isbridge
Card
p105
(dp106
g43
I11
sg44
I1
sba(isbridge
Card
p107
(dp108
g43
I14
sg44
I2
sba(isbridge
Card
p109
(dp110
g43
I12
sg44
I2
sba(isbridge
Card
p111
(dp112
g43
I10
sg44
I2
sba(isbridge
Card
p113
(dp114
g43
I7
sg44
I2
sba(isbridge
Card
p115
(dp116
g43
I14
sg44
I3
sba(isbridge
Card
p117
(dp118
g43
I9
sg44
I3
sba(isbridge
Card
p119
(dp120
g43
I4
sg44
I3
sba(isbridge
Card
p121
(dp122
g43
I2
sg44
I3
sbaa(lp123
(isbridge
Card
p124
(dp125
g43
I12
sg44
I0
sba(isbridge
Card
p126
(dp127
g43
I8
sg44
I0
sba(isbridge
Card
p128
(dp129
g43
I4
sg44
I0
sba(isbridge
Card
p130
(dp131
g43
I12
sg44
I1
sba(isbridge
Card
p132
(dp133
g43
I7
sg44
I1
sba(isbridge
Card
p134
(dp135
g43
I6
sg44
I1
sba(isbridge
Card
p136
(dp137
g43
I5
sg44
I1
sba(isbridge
Card
p138
(dp139
g43
I4
sg44
I1
sba(isbridge
Card
p140
(dp141
g43
I3
sg44
I1
sba(isbridge
Card
p142
(dp143
g43
I13
sg44
I2
sba(isbridge
Card
p144
(dp145
g43
I3
sg44
I2
sba(isbridge
Card
p146
(dp147
g43
I8
sg44
I3
sba(isbridge
Card
p148
(dp149
g43
I5
sg44
I3
sbaasS'doubler'
p150
NsS'model'
p151
(isbridge
BidGrid
p152
(dp153
S'row'
p154
I1
sS'data'
p155
(lp156
(lp157
I10
aI11
a(isbridge
Bid
p158
(dp159
S'denom'
p160
I0
sS'level'
p161
I1
sba(isbridge
Bid
p162
(dp163
g160
Nsg161
I-2
sbaa(lp164
g19
a(isbridge
Bid
p165
(dp166
g21
Nsg22
I-1
sba(isbridge
Bid
p167
(dp168
g21
Nsg22
I-1
sba(isbridge
Bid
p169
(dp170
g21
Nsg22
I-1
sbaa(lp171
asg17
I2
sS'col'
p172
I0
sbsS'contractor'
p173
I0
sS'passes'
p174
I3
sbsS'bid_status'
p175
(ifloater_client
BidStatus
p176
(dp177
S'data'
p178
S'1c x1s p p p'
p179
sbsS'hostname'
p180
S'127.0.0.1!localhost'
p181
sS'rubber'
p182
(isbridge
Rubber
p183
(dp184
g182
I00
sS'below'
p185
(lp186
I0
aI0
asS'above'
p187
(lp188
I0
aI0
asg6
g7
sS'hands'
p189
(lp190
(lp191
g41
ag45
ag47
ag49
ag51
ag53
ag55
ag57
ag59
ag61
ag63
ag65
ag67
aa(lp192
g70
ag72
ag74
ag76
ag78
ag80
ag82
ag84
ag86
ag88
ag90
ag92
ag94
aa(lp193
g97
ag99
ag101
ag103
ag105
ag107
ag109
ag111
ag113
ag115
ag117
ag119
ag121
aa(lp194
g124
ag126
ag128
ag130
ag132
ag134
ag136
ag138
ag140
ag142
ag144
ag146
ag148
aasS'dealer'
p195
I3
sS'vulnerable'
p196
(lp197
I00
aI00
asbsS'message_seq'
p198
I212
sS'hand_id'
p199
I3
sS'clientname'
p200
S'tableserver'
p201
sb(lp202
(isAi
ComputerPlayer
p203
(dp204
g182
NsS'history'
p205
(lp206
g169
ag167
ag165
ag19
ag162
ag158
asS'bidState'
p207
(isAi
AIBidStatus
p208
(dp209
S'handsEval'
p210
(lp211
(isAi
HandEvaluation
p212
(dp213
S'hcp'
p214
S''
p215
sS'reject'
p216
(lp217
sS'accept'
p218
(lp219
S'opening1 is 1c, hcp in 6..18, s >= 4'
p220
asS'opening'
p221
I00
sba(isAi
HandEvaluation
p222
(dp223
g214
g215
sg216
(lp224
sg218
(lp225
sg221
I00
sba(isAi
HandEvaluation
p226
(dp227
g214
g215
sg216
(lp228
sg218
(lp229
S'hcp in 13..21, s < 5,h < 5,c >= 3, c >= d'
p230
asg221
I00
sba(isAi
HandEvaluation
p231
(dp232
g214
g215
sg216
(lp233
sg218
(lp234
sg221
I00
sbasS'first5'
p235
(lp236
(I2
g158
tp237
ag162
ag19
ag165
ag167
asS'ai'
p238
g203
sS'hand'
p239
(isAi
OneHand
p240
(dp241
g238
g203
sS'suits'
p242
(dp243
I0
(lp244
I3
asI1
(lp245
I14
aI10
aI9
aI2
asI2
(lp246
I9
aI5
asI3
(lp247
I13
aI12
aI11
aI7
aI6
aI3
assS'bidState'
p248
g208
sg239
(lp249
g41
ag47
ag49
ag51
ag53
ag55
ag57
ag59
ag61
ag63
ag65
asbsS'state'
p250
S'openerNextBid'
p251
sS'distributionsScripts'
p252
S'main { accept }'
p253
sS'currentBid'
p254
(I1
g19
tp255
sS'bid_system'
p256
(S'sayc'
p257
g257
tp258
sbsg6
(isbridge
Deal
p259
(dp260
g9
I01
sg10
I2
sg11
(lp261
(lp262
(isbridge
Card
p263
(dp264
S'rank'
p265
I14
sS'suit'
p266
I1
sba(isbridge
Card
p267
(dp268
S'rank'
p269
I3
sS'suit'
p270
I3
sbaa(lp271
(isbridge
Card
p272
(dp273
S'rank'
p274
I13
sS'suit'
p275
I1
sba(isbridge
Card
p276
(dp277
g269
I10
sg270
I3
sbaa(lp278
(isbridge
Card
p279
(dp280
S'rank'
p281
I11
sS'suit'
p282
I1
sbaa(lp283
(isbridge
Card
p284
(dp285
g281
I7
sg282
I1
sbaasg17
I2
sg18
g19
sg23
Nsg24
(lp286
I1
aI0
asg26
(isbridge
Trick
p287
(dp288
S'player'
p289
I2
sS'trump'
p290
I3
sS'lead'
p291
I3
sS'cards'
p292
(lp293
g267
ag276
aNaNasS'winner'
p294
I1
sS'leader'
p295
I0
sbsg36
I2
sg37
I0
sg38
(lp296
g249
a(lp297
g70
ag72
ag74
ag76
ag78
ag82
ag84
ag86
ag88
ag90
ag92
aa(lp298
g97
ag99
ag101
ag103
ag107
ag109
ag111
ag113
ag115
ag117
ag119
ag121
aa(lp299
g124
ag126
ag128
ag130
ag134
ag136
ag138
ag140
ag142
ag144
ag146
ag148
aasg150
Nsg151
(isbridge
BidGrid
p300
(dp301
g154
I1
sg155
(lp302
(lp303
I10
aI11
ag158
ag162
aa(lp304
g19
ag165
ag167
ag169
aa(lp305
asg17
I2
sg172
I0
sbsg173
I0
sg174
I3
sbsS'seat'
p306
I0
sba(isAi
ComputerPlayer
p307
(dp308
g182
Nsg205
(lp309
g169
ag167
ag165
ag19
ag162
ag158
asg207
(isAi
AIBidStatus
p310
(dp311
g210
(lp312
(isAi
HandEvaluation
p313
(dp314
g214
g215
sg216
(lp315
sg218
(lp316
g220
asg221
I00
sba(isAi
HandEvaluation
p317
(dp318
g214
g215
sg216
(lp319
sg218
(lp320
sg221
I00
sba(isAi
HandEvaluation
p321
(dp322
g214
g215
sg216
(lp323
sg218
(lp324
g230
asg221
I00
sba(isAi
HandEvaluation
p325
(dp326
g214
g215
sg216
(lp327
sg218
(lp328
sg221
I00
sbasg235
(lp329
(I2
g158
tp330
ag162
ag19
ag165
ag167
asg238
g307
sg239
(isAi
OneHand
p331
(dp332
g238
g307
sg242
(dp333
I0
(lp334
I11
aI10
aI7
aI5
aI2
asI1
(lp335
I13
aI8
asI2
(lp336
I11
aI8
aI6
aI4
aI2
asI3
(lp337
I10
assg248
g310
sg239
(lp338
g70
ag72
ag74
ag76
ag78
ag82
ag84
ag86
ag88
ag90
ag92
asbsg250
g251
sg252
g253
sg254
(I1
g19
tp339
sg256
g258
sbsg6
(isbridge
Deal
p340
(dp341
g9
I01
sg10
I2
sg11
(lp342
(lp343
g263
ag267
aa(lp344
g272
ag276
aa(lp345
g279
aa(lp346
g284
aasg17
I2
sg18
g19
sg23
Nsg24
(lp347
I1
aI0
asg26
(isbridge
Trick
p348
(dp349
g289
I2
sg290
I3
sg291
I3
sg292
(lp350
g267
ag276
aNaNasg294
I1
sg295
I0
sbsg36
I2
sg37
I0
sg38
(lp351
(lp352
g41
ag47
ag49
ag51
ag53
ag55
ag57
ag59
ag61
ag63
ag65
aag338
a(lp353
g97
ag99
ag101
ag103
ag107
ag109
ag111
ag113
ag115
ag117
ag119
ag121
aa(lp354
g124
ag126
ag128
ag130
ag134
ag136
ag138
ag140
ag142
ag144
ag146
ag148
aasg150
Nsg151
(isbridge
BidGrid
p355
(dp356
g154
I1
sg155
(lp357
(lp358
I10
aI11
ag158
ag162
aa(lp359
g19
ag165
ag167
ag169
aa(lp360
asg17
I2
sg172
I0
sbsg173
I0
sg174
I3
sbsg306
I1
sba(isAi
ComputerPlayer
p361
(dp362
g182
Nsg205
(lp363
g169
ag167
ag165
ag19
ag162
ag158
asg207
(isAi
AIBidStatus
p364
(dp365
g210
(lp366
(isAi
HandEvaluation
p367
(dp368
g214
g215
sg216
(lp369
sg218
(lp370
g220
asg221
I00
sba(isAi
HandEvaluation
p371
(dp372
g214
g215
sg216
(lp373
sg218
(lp374
sg221
I00
sba(isAi
HandEvaluation
p375
(dp376
g214
g215
sg216
(lp377
sg218
(lp378
g230
asg221
I00
sba(isAi
HandEvaluation
p379
(dp380
g214
g215
sg216
(lp381
sg218
(lp382
sg221
I00
sbasg235
(lp383
(I2
g158
tp384
ag162
ag19
ag165
ag167
asg238
g361
sg239
(isAi
OneHand
p385
(dp386
g238
g361
sg242
(dp387
I0
(lp388
I14
aI13
aI9
aI6
asI1
(lp389
I11
asI2
(lp390
I14
aI12
aI10
aI7
asI3
(lp391
I14
aI9
aI4
aI2
assg248
g364
sg239
(lp392
g97
ag99
ag101
ag103
ag105
ag107
ag109
ag111
ag113
ag115
ag117
ag119
ag121
asbsg250
g251
sg252
g253
sg254
(I1
g19
tp393
sg256
g258
sbsg6
(isbridge
Deal
p394
(dp395
g9
I01
sg10
I2
sg11
(lp396
(lp397
g263
ag267
aa(lp398
g272
ag276
aa(lp399
g279
aa(lp400
g284
aasg17
I2
sg18
g19
sg23
Nsg24
(lp401
I1
aI0
asg26
(isbridge
Trick
p402
(dp403
g289
I2
sg290
I3
sg291
I3
sg292
(lp404
g267
ag276
aNaNasg294
I1
sg295
I0
sbsg36
I2
sg37
I0
sg38
(lp405
(lp406
g41
ag47
ag49
ag51
ag53
ag55
ag57
ag59
ag61
ag63
ag65
aa(lp407
g70
ag72
ag74
ag76
ag78
ag82
ag84
ag86
ag88
ag90
ag92
aa(lp408
g97
ag99
ag101
ag103
ag107
ag109
ag111
ag113
ag115
ag117
ag119
ag121
aa(lp409
g124
ag126
ag128
ag130
ag134
ag136
ag138
ag140
ag142
ag144
ag146
ag148
aasg150
Nsg151
(isbridge
BidGrid
p410
(dp411
g154
I1
sg155
(lp412
(lp413
I10
aI11
ag158
ag162
aa(lp414
g19
ag165
ag167
ag169
aa(lp415
asg17
I2
sg172
I0
sbsg173
I0
sg174
I3
sbsg306
I2
sba(isAi
ComputerPlayer
p416
(dp417
g182
Nsg205
(lp418
g169
ag167
ag165
ag19
ag162
ag158
asg207
(isAi
AIBidStatus
p419
(dp420
g210
(lp421
(isAi
HandEvaluation
p422
(dp423
g214
g215
sg216
(lp424
sg218
(lp425
g220
asg221
I00
sba(isAi
HandEvaluation
p426
(dp427
g214
g215
sg216
(lp428
sg218
(lp429
sg221
I00
sba(isAi
HandEvaluation
p430
(dp431
g214
g215
sg216
(lp432
sg218
(lp433
g230
asg221
I00
sba(isAi
HandEvaluation
p434
(dp435
g214
g215
sg216
(lp436
sg218
(lp437
sg221
I00
sbasg235
(lp438
(I2
g158
tp439
ag162
ag19
ag165
ag167
asg238
g416
sg239
(isAi
OneHand
p440
(dp441
g238
g416
sg242
(dp442
I0
(lp443
I12
aI8
aI4
asI1
(lp444
I12
aI7
aI6
aI5
aI4
aI3
asI2
(lp445
I13
aI3
asI3
(lp446
I8
aI5
assg221
g158
sg248
g419
sg239
(lp447
g124
ag126
ag128
ag130
ag134
ag136
ag138
ag140
ag142
ag144
ag146
ag148
asbsg250
g251
sg252
g253
sg254
(I1
g19
tp448
sg256
g258
sbsg6
(isbridge
Deal
p449
(dp450
g9
I01
sg10
I2
sg11
(lp451
(lp452
g263
ag267
aa(lp453
g272
ag276
aa(lp454
g279
aa(lp455
g284
aasg17
I2
sg18
g19
sg23
Nsg24
(lp456
I1
aI0
asg26
(isbridge
Trick
p457
(dp458
g289
I2
sg290
I3
sg291
I3
sg292
(lp459
g267
ag276
aNaNasg294
I1
sg295
I0
sbsg36
I2
sg37
I0
sg38
(lp460
(lp461
g41
ag47
ag49
ag51
ag53
ag55
ag57
ag59
ag61
ag63
ag65
aa(lp462
g70
ag72
ag74
ag76
ag78
ag82
ag84
ag86
ag88
ag90
ag92
aa(lp463
g97
ag99
ag101
ag103
ag107
ag109
ag111
ag113
ag115
ag117
ag119
ag121
aag447
asg150
Nsg151
(isbridge
BidGrid
p464
(dp465
g154
I1
sg155
(lp466
(lp467
I10
aI11
ag158
ag162
aa(lp468
g19
ag165
ag167
ag169
aa(lp469
asg17
I2
sg172
I0
sbsg173
I0
sg174
I3
sbsg306
I3
sbatp470
.